(lp1
(lp2
I5
aI0
aI0
aa(lp3
I5
aI0
aI0
aa(lp4
I3
aI0
aI0
aa(lp5
I8
aI0
aI0
aa(lp6
I3
aI0
aI0
aa(lp7
I0
aI0
aI0
aa(lp8
I4
aI0
aI0
aa(lp9
I5
aI0
aI0
aa(lp10
I26
aI0
aI0
aa(lp11
I10
aI0
aI0
aa(lp12
I23
aI0
aI0
aa.