(lp1
(lp2
I13
aI0
aI0
aa(lp3
I7
aI0
aI0
aa(lp4
I0
aI0
aI0
aa(lp5
I9
aI0
aI0
aa(lp6
I4
aI0
aI0
aa(lp7
I2
aI0
aI0
aa(lp8
I6
aI0
aI0
aa(lp9
I3
aI0
aI0
aa(lp10
I11
aI0
aI0
aa(lp11
I1
aI0
aI0
aa(lp12
I0
aI0
aI0
aa(lp13
I2
aI0
aI0
aa(lp14
I27
aI0
aI0
aa(lp15
I2
aI0
aI0
aa(lp16
I6
aI0
aI0
aa(lp17
I10
aI0
aI0
aa(lp18
I3
aI0
aI0
aa(lp19
I3
aI0
aI0
aa(lp20
I12
aI0
aI0
aa(lp21
I2
aI0
aI0
aa(lp22
I20
aI0
aI0
aa(lp23
I8
aI0
aI0
aa(lp24
I1
aI0
aI0
aa(lp25
I3
aI0
aI0
aa(lp26
I6
aI0
aI0
aa(lp27
I2
aI0
aI0
aa(lp28
I3
aI0
aI0
aa(lp29
I6
aI0
aI0
aa(lp30
I7
aI0
aI0
aa(lp31
I9
aI0
aI0
aa(lp32
I2
aI0
aI0
aa(lp33
I3
aI0
aI0
aa(lp34
I3
aI0
aI0
aa(lp35
I9
aI0
aI0
aa.