(lp1
(lp2
I16
aI0
aI0
aa(lp3
I3
aI0
aI0
aa(lp4
I5
aI0
aI0
aa(lp5
I6
aI0
aI0
aa(lp6
I5
aI0
aI0
aa(lp7
I5
aI0
aI0
aa(lp8
I6
aI0
aI0
aa(lp9
I9
aI0
aI0
aa(lp10
I24
aI0
aI0
aa(lp11
I6
aI0
aI0
aa(lp12
I9
aI0
aI0
aa.